; Function Attrs: mustprogress uwtable
define void @_ZNK8facebook5velox4exec14FieldReference5toSqlB5cxx11EPSt6vectorISt10shared_ptrINS0_10BaseVectorEESaIS6_EE(ptr noalias sret(%"class.std::__cxx11::basic_string") align 8 %agg.result, ptr noundef nonnull align 8 dereferenceable(484) %this, ptr noundef %complexConstants) unnamed_addr #0 align 2 personality ptr @__gxx_personality_v0 {
entry:
  %out = alloca %"class.std::__cxx11::basic_stringstream", align 8
  call void @_ZNSt7__cxx1118basic_stringstreamIcSt11char_traitsIcESaIcEEC1Ev(ptr noundef nonnull align 8 dereferenceable(128) %out)
  %inputs_ = getelementptr inbounds i8, ptr %this, i64 24
  %0 = load ptr, ptr %inputs_, align 8
  %_M_finish.i.i = getelementptr inbounds i8, ptr %this, i64 32
  %1 = load ptr, ptr %_M_finish.i.i, align 8
  %cmp.i.i = icmp eq ptr %0, %1
  br i1 %cmp.i.i, label %if.end, label %if.then

if.then:                                          ; preds = %entry
  invoke void @_ZNK8facebook5velox4exec4Expr15appendInputsSqlERNSt7__cxx1118basic_stringstreamIcSt11char_traitsIcESaIcEEEPSt6vectorISt10shared_ptrINS0_10BaseVectorEESaISD_EE(ptr noundef nonnull align 8 dereferenceable(442) %this, ptr noundef nonnull align 8 dereferenceable(128) %out, ptr noundef %complexConstants)
          to label %invoke.cont unwind label %lpad

invoke.cont:                                      ; preds = %if.then
  %add.ptr = getelementptr inbounds i8, ptr %out, i64 16
  %call3 = invoke noundef nonnull align 8 dereferenceable(8) ptr @_ZStlsISt11char_traitsIcEERSt13basic_ostreamIcT_ES5_PKc(ptr noundef nonnull align 8 dereferenceable(8) %add.ptr, ptr noundef nonnull @.str)
          to label %if.end unwind label %lpad

lpad:                                             ; preds = %invoke.cont11, %invoke.cont9, %invoke.cont5, %if.end, %invoke.cont, %if.then
  %2 = landingpad { ptr, i32 }
          cleanup
  call void @_ZNSt7__cxx1118basic_stringstreamIcSt11char_traitsIcESaIcEED1Ev(ptr noundef nonnull align 8 dereferenceable(128) %out) #16
  resume { ptr, i32 } %2

if.end:                                           ; preds = %invoke.cont, %entry
  %add.ptr4 = getelementptr inbounds i8, ptr %out, i64 16
  %call6 = invoke noundef nonnull align 8 dereferenceable(8) ptr @_ZStlsISt11char_traitsIcEERSt13basic_ostreamIcT_ES5_PKc(ptr noundef nonnull align 8 dereferenceable(8) %add.ptr4, ptr noundef nonnull @.str.1)
          to label %invoke.cont5 unwind label %lpad

invoke.cont5:                                     ; preds = %if.end
  %name_.i = getelementptr inbounds i8, ptr %this, i64 48
  %call10 = invoke noundef nonnull align 8 dereferenceable(8) ptr @_ZStlsIcSt11char_traitsIcESaIcEERSt13basic_ostreamIT_T0_ES7_RKNSt7__cxx1112basic_stringIS4_S5_T1_EE(ptr noundef nonnull align 8 dereferenceable(8) %call6, ptr noundef nonnull align 8 dereferenceable(32) %name_.i)
          to label %invoke.cont9 unwind label %lpad

invoke.cont9:                                     ; preds = %invoke.cont5
  %call12 = invoke noundef nonnull align 8 dereferenceable(8) ptr @_ZStlsISt11char_traitsIcEERSt13basic_ostreamIcT_ES5_PKc(ptr noundef nonnull align 8 dereferenceable(8) %call10, ptr noundef nonnull @.str.1)
          to label %invoke.cont11 unwind label %lpad

invoke.cont11:                                    ; preds = %invoke.cont9
  invoke void @_ZNKSt7__cxx1118basic_stringstreamIcSt11char_traitsIcESaIcEE3strEv(ptr sret(%"class.std::__cxx11::basic_string") align 8 %agg.result, ptr noundef nonnull align 8 dereferenceable(128) %out)
          to label %invoke.cont13 unwind label %lpad

invoke.cont13:                                    ; preds = %invoke.cont11
  call void @_ZNSt7__cxx1118basic_stringstreamIcSt11char_traitsIcESaIcEED1Ev(ptr noundef nonnull align 8 dereferenceable(128) %out) #16
  ret void
}